; Function Attrs: nounwind uwtable
define internal noalias ptr @SS_copy(ptr noundef readonly captures(none) %0) #0 {
  %2 = tail call noalias ptr @CRYPTO_malloc(i64 noundef 8, ptr noundef nonnull @.str.4, i32 noundef 260) #5
  %.not = icmp eq ptr %2, null
  br i1 %.not, label %5, label %3

3:                                                ; preds = %1
  %4 = load i64, ptr %0, align 4
  store i64 %4, ptr %2, align 4
  br label %5

5:                                                ; preds = %3, %1
  ret ptr %2
}